target datalayout = "e-m:e-p270:32:32-p271:32:32-p272:64:64-i64:64-i128:128-f80:128-n8:16:32:64-S128"
target triple = "x86_64-unknown-linux-gnu"

%"class.cvc5::internal::EnvObj" = type { ptr, ptr }
%"class.cvc5::internal::prop::MinisatSatSolver::Statistics" = type { %"class.cvc5::internal::ReferenceStat", %"class.cvc5::internal::ReferenceStat", %"class.cvc5::internal::ReferenceStat", %"class.cvc5::internal::ReferenceStat", %"class.cvc5::internal::ReferenceStat", %"class.cvc5::internal::ReferenceStat", %"class.cvc5::internal::ReferenceStat", %"class.cvc5::internal::ReferenceStat", %"class.cvc5::internal::ReferenceStat" }
%"class.cvc5::internal::ReferenceStat" = type { ptr }
%"class.cvc5::internal::Minisat::vec.280" = type { ptr, i32, i32 }
%"class.cvc5::internal::Minisat::Solver" = type <{ %"class.cvc5::internal::EnvObj", ptr, ptr, i32, i32, i32, [4 x i8], %"class.std::unique_ptr.270", i8, [7 x i8], %"class.cvc5::internal::Minisat::vec", %"class.cvc5::internal::Minisat::vec.278", i8, i8, [6 x i8], %"class.cvc5::internal::Minisat::vec.279", %"class.cvc5::internal::Minisat::vec.280", i32, [4 x i8], double, double, double, double, i8, [3 x i8], i32, i32, i8, i8, [2 x i8], double, i32, [4 x i8], double, double, double, i32, [4 x i8], double, i64, i64, i64, i64, i64, i64, i64, i64, i64, i64, i64, i64, i8, [7 x i8], %"class.cvc5::internal::Minisat::vec.281", %"class.cvc5::internal::Minisat::vec.281", double, %"class.cvc5::internal::Minisat::vec.282", double, %"class.cvc5::internal::Minisat::OccLists", %"class.cvc5::internal::Minisat::vec.279", %"class.cvc5::internal::Minisat::vec.285", %"class.cvc5::internal::Minisat::vec.284", %"class.cvc5::internal::Minisat::vec.284", %"class.cvc5::internal::Minisat::vec.285", %"class.cvc5::internal::Minisat::vec.280", %"class.cvc5::internal::Minisat::vec.285", %"class.cvc5::internal::Minisat::vec.278", %"class.cvc5::internal::Minisat::vec.286", i32, i32, i64, %"class.cvc5::internal::Minisat::vec.280", %"class.cvc5::internal::Minisat::Heap", double, i8, [7 x i8], %"class.cvc5::internal::Minisat::ClauseAllocator", %"class.cvc5::internal::Minisat::vec.278", %"class.cvc5::internal::Minisat::vec.284", %"class.cvc5::internal::Minisat::vec.280", %"class.cvc5::internal::Minisat::vec.280", %"class.cvc5::internal::Minisat::vec.280", double, double, i32, [4 x i8], i64, i64, i8, i8, [6 x i8] }>
%"class.std::unique_ptr.270" = type { %"struct.std::__uniq_ptr_data.271" }
%"struct.std::__uniq_ptr_data.271" = type { %"class.std::__uniq_ptr_impl.272" }
%"class.std::__uniq_ptr_impl.272" = type { %"class.std::tuple.273" }
%"class.std::tuple.273" = type { %"struct.std::_Tuple_impl.274" }
%"struct.std::_Tuple_impl.274" = type { %"struct.std::_Head_base.277" }
%"struct.std::_Head_base.277" = type { ptr }
%"class.cvc5::internal::Minisat::vec" = type { ptr, i32, i32 }
%"class.cvc5::internal::Minisat::vec.281" = type { ptr, i32, i32 }
%"class.cvc5::internal::Minisat::vec.282" = type { ptr, i32, i32 }
%"class.cvc5::internal::Minisat::OccLists" = type { %"class.cvc5::internal::Minisat::vec.283", %"class.cvc5::internal::Minisat::vec.284", %"class.cvc5::internal::Minisat::vec.280", %"struct.cvc5::internal::Minisat::Solver::WatcherDeleted" }
%"class.cvc5::internal::Minisat::vec.283" = type { ptr, i32, i32 }
%"struct.cvc5::internal::Minisat::Solver::WatcherDeleted" = type { ptr }
%"class.cvc5::internal::Minisat::vec.279" = type { ptr, i32, i32 }
%"class.cvc5::internal::Minisat::vec.285" = type { ptr, i32, i32 }
%"class.cvc5::internal::Minisat::vec.286" = type { ptr, i32, i32 }
%"class.cvc5::internal::Minisat::Heap" = type { %"struct.cvc5::internal::Minisat::Solver::VarOrderLt", %"class.cvc5::internal::Minisat::vec.285", %"class.cvc5::internal::Minisat::vec.285" }
%"struct.cvc5::internal::Minisat::Solver::VarOrderLt" = type { ptr }
%"class.cvc5::internal::Minisat::ClauseAllocator" = type { %"class.cvc5::internal::Minisat::RegionAllocator.base", i8, [3 x i8] }
%"class.cvc5::internal::Minisat::RegionAllocator.base" = type <{ ptr, i32, i32, i32 }>
%"class.cvc5::internal::Minisat::vec.278" = type { ptr, i32, i32 }
%"class.cvc5::internal::Minisat::vec.284" = type { ptr, i32, i32 }
%"struct.cvc5::internal::StatisticReferenceValue" = type { %"struct.cvc5::internal::StatisticBaseValue.base", ptr, %"class.std::optional" }
%"struct.cvc5::internal::StatisticBaseValue.base" = type <{ ptr, i8 }>
%"class.std::optional" = type { %"struct.std::_Optional_base" }
%"struct.std::_Optional_base" = type { %"struct.std::_Optional_payload" }
%"struct.std::_Optional_payload" = type { %"struct.std::_Optional_payload_base.base", [7 x i8] }
%"struct.std::_Optional_payload_base.base" = type <{ %"union.std::_Optional_payload_base<long>::_Storage", i8 }>
%"union.std::_Optional_payload_base<long>::_Storage" = type { i64 }

; Function Attrs: mustprogress nounwind uwtable
define linkonce_odr hidden void @_ZN4cvc58internal13ReferenceStatIlE3setIlEEvRKT_(ptr noundef nonnull align 8 dereferenceable(8) %this, ptr noundef nonnull align 8 dereferenceable(8) %t) #4 comdat align 2 {
entry:
  %this.addr = alloca ptr, align 8
  %t.addr = alloca ptr, align 8
  store ptr %this, ptr %this.addr, align 8
  store ptr %t, ptr %t.addr, align 8
  %this1 = load ptr, ptr %this.addr, align 8
  %0 = load ptr, ptr %t.addr, align 8
  %d_data = getelementptr inbounds %"class.cvc5::internal::ReferenceStat", ptr %this1, i32 0, i32 0
  %1 = load ptr, ptr %d_data, align 8
  %d_value = getelementptr inbounds %"struct.cvc5::internal::StatisticReferenceValue", ptr %1, i32 0, i32 1
  store ptr %0, ptr %d_value, align 8
  ret void
}

; Function Attrs: mustprogress uwtable
define hidden void @_ZN4cvc58internal4prop16MinisatSatSolver10Statistics4initEPNS0_7Minisat10SimpSolverE(ptr noundef nonnull align 8 dereferenceable(72) %this, ptr noundef %minisat) #5 align 2 {
entry:
  %this.addr = alloca ptr, align 8
  %minisat.addr = alloca ptr, align 8
  store ptr %this, ptr %this.addr, align 8
  store ptr %minisat, ptr %minisat.addr, align 8
  %this1 = load ptr, ptr %this.addr, align 8
  %d_statStarts = getelementptr inbounds %"class.cvc5::internal::prop::MinisatSatSolver::Statistics", ptr %this1, i32 0, i32 0
  %0 = load ptr, ptr %minisat.addr, align 8
  %starts = getelementptr inbounds %"class.cvc5::internal::Minisat::Solver", ptr %0, i32 0, i32 40
  call void @_ZN4cvc58internal13ReferenceStatIlE3setIlEEvRKT_(ptr noundef nonnull align 8 dereferenceable(8) %d_statStarts, ptr noundef nonnull align 8 dereferenceable(8) %starts)
  %d_statDecisions = getelementptr inbounds %"class.cvc5::internal::prop::MinisatSatSolver::Statistics", ptr %this1, i32 0, i32 1
  %1 = load ptr, ptr %minisat.addr, align 8
  %decisions = getelementptr inbounds %"class.cvc5::internal::Minisat::Solver", ptr %1, i32 0, i32 41
  call void @_ZN4cvc58internal13ReferenceStatIlE3setIlEEvRKT_(ptr noundef nonnull align 8 dereferenceable(8) %d_statDecisions, ptr noundef nonnull align 8 dereferenceable(8) %decisions)
  %d_statRndDecisions = getelementptr inbounds %"class.cvc5::internal::prop::MinisatSatSolver::Statistics", ptr %this1, i32 0, i32 2
  %2 = load ptr, ptr %minisat.addr, align 8
  %rnd_decisions = getelementptr inbounds %"class.cvc5::internal::Minisat::Solver", ptr %2, i32 0, i32 42
  call void @_ZN4cvc58internal13ReferenceStatIlE3setIlEEvRKT_(ptr noundef nonnull align 8 dereferenceable(8) %d_statRndDecisions, ptr noundef nonnull align 8 dereferenceable(8) %rnd_decisions)
  %d_statPropagations = getelementptr inbounds %"class.cvc5::internal::prop::MinisatSatSolver::Statistics", ptr %this1, i32 0, i32 3
  %3 = load ptr, ptr %minisat.addr, align 8
  %propagations = getelementptr inbounds %"class.cvc5::internal::Minisat::Solver", ptr %3, i32 0, i32 43
  call void @_ZN4cvc58internal13ReferenceStatIlE3setIlEEvRKT_(ptr noundef nonnull align 8 dereferenceable(8) %d_statPropagations, ptr noundef nonnull align 8 dereferenceable(8) %propagations)
  %d_statConflicts = getelementptr inbounds %"class.cvc5::internal::prop::MinisatSatSolver::Statistics", ptr %this1, i32 0, i32 4
  %4 = load ptr, ptr %minisat.addr, align 8
  %conflicts = getelementptr inbounds %"class.cvc5::internal::Minisat::Solver", ptr %4, i32 0, i32 44
  call void @_ZN4cvc58internal13ReferenceStatIlE3setIlEEvRKT_(ptr noundef nonnull align 8 dereferenceable(8) %d_statConflicts, ptr noundef nonnull align 8 dereferenceable(8) %conflicts)
  %d_statClausesLiterals = getelementptr inbounds %"class.cvc5::internal::prop::MinisatSatSolver::Statistics", ptr %this1, i32 0, i32 5
  %5 = load ptr, ptr %minisat.addr, align 8
  %clauses_literals = getelementptr inbounds %"class.cvc5::internal::Minisat::Solver", ptr %5, i32 0, i32 47
  call void @_ZN4cvc58internal13ReferenceStatIlE3setIlEEvRKT_(ptr noundef nonnull align 8 dereferenceable(8) %d_statClausesLiterals, ptr noundef nonnull align 8 dereferenceable(8) %clauses_literals)
  %d_statLearntsLiterals = getelementptr inbounds %"class.cvc5::internal::prop::MinisatSatSolver::Statistics", ptr %this1, i32 0, i32 6
  %6 = load ptr, ptr %minisat.addr, align 8
  %learnts_literals = getelementptr inbounds %"class.cvc5::internal::Minisat::Solver", ptr %6, i32 0, i32 48
  call void @_ZN4cvc58internal13ReferenceStatIlE3setIlEEvRKT_(ptr noundef nonnull align 8 dereferenceable(8) %d_statLearntsLiterals, ptr noundef nonnull align 8 dereferenceable(8) %learnts_literals)
  %d_statMaxLiterals = getelementptr inbounds %"class.cvc5::internal::prop::MinisatSatSolver::Statistics", ptr %this1, i32 0, i32 7
  %7 = load ptr, ptr %minisat.addr, align 8
  %max_literals = getelementptr inbounds %"class.cvc5::internal::Minisat::Solver", ptr %7, i32 0, i32 49
  call void @_ZN4cvc58internal13ReferenceStatIlE3setIlEEvRKT_(ptr noundef nonnull align 8 dereferenceable(8) %d_statMaxLiterals, ptr noundef nonnull align 8 dereferenceable(8) %max_literals)
  %d_statTotLiterals = getelementptr inbounds %"class.cvc5::internal::prop::MinisatSatSolver::Statistics", ptr %this1, i32 0, i32 8
  %8 = load ptr, ptr %minisat.addr, align 8
  %tot_literals = getelementptr inbounds %"class.cvc5::internal::Minisat::Solver", ptr %8, i32 0, i32 50
  call void @_ZN4cvc58internal13ReferenceStatIlE3setIlEEvRKT_(ptr noundef nonnull align 8 dereferenceable(8) %d_statTotLiterals, ptr noundef nonnull align 8 dereferenceable(8) %tot_literals)
  ret void
}