; Function Attrs: mustprogress nofree norecurse nosync nounwind willreturn memory(write, argmem: readwrite, inaccessiblemem: none) uwtable
define hidden void @_ZN4cvc58internal4prop16MinisatSatSolver10Statistics4initEPNS0_7Minisat10SimpSolverE(ptr nocapture noundef nonnull readonly align 8 dereferenceable(72) %this, ptr noundef %minisat) local_unnamed_addr #13 align 2 {
entry:
  %starts = getelementptr inbounds i8, ptr %minisat, i64 256
  %0 = load ptr, ptr %this, align 8
  %d_value.i = getelementptr inbounds i8, ptr %0, i64 16
  store ptr %starts, ptr %d_value.i, align 8
  %d_statDecisions = getelementptr inbounds i8, ptr %this, i64 8
  %decisions = getelementptr inbounds i8, ptr %minisat, i64 264
  %1 = load ptr, ptr %d_statDecisions, align 8
  %d_value.i9 = getelementptr inbounds i8, ptr %1, i64 16
  store ptr %decisions, ptr %d_value.i9, align 8
  %d_statRndDecisions = getelementptr inbounds i8, ptr %this, i64 16
  %rnd_decisions = getelementptr inbounds i8, ptr %minisat, i64 272
  %2 = load ptr, ptr %d_statRndDecisions, align 8
  %d_value.i10 = getelementptr inbounds i8, ptr %2, i64 16
  store ptr %rnd_decisions, ptr %d_value.i10, align 8
  %d_statPropagations = getelementptr inbounds i8, ptr %this, i64 24
  %propagations = getelementptr inbounds i8, ptr %minisat, i64 280
  %3 = load ptr, ptr %d_statPropagations, align 8
  %d_value.i11 = getelementptr inbounds i8, ptr %3, i64 16
  store ptr %propagations, ptr %d_value.i11, align 8
  %d_statConflicts = getelementptr inbounds i8, ptr %this, i64 32
  %conflicts = getelementptr inbounds i8, ptr %minisat, i64 288
  %4 = load ptr, ptr %d_statConflicts, align 8
  %d_value.i12 = getelementptr inbounds i8, ptr %4, i64 16
  store ptr %conflicts, ptr %d_value.i12, align 8
  %d_statClausesLiterals = getelementptr inbounds i8, ptr %this, i64 40
  %clauses_literals = getelementptr inbounds i8, ptr %minisat, i64 312
  %5 = load ptr, ptr %d_statClausesLiterals, align 8
  %d_value.i13 = getelementptr inbounds i8, ptr %5, i64 16
  store ptr %clauses_literals, ptr %d_value.i13, align 8
  %d_statLearntsLiterals = getelementptr inbounds i8, ptr %this, i64 48
  %learnts_literals = getelementptr inbounds i8, ptr %minisat, i64 320
  %6 = load ptr, ptr %d_statLearntsLiterals, align 8
  %d_value.i14 = getelementptr inbounds i8, ptr %6, i64 16
  store ptr %learnts_literals, ptr %d_value.i14, align 8
  %d_statMaxLiterals = getelementptr inbounds i8, ptr %this, i64 56
  %max_literals = getelementptr inbounds i8, ptr %minisat, i64 328
  %7 = load ptr, ptr %d_statMaxLiterals, align 8
  %d_value.i15 = getelementptr inbounds i8, ptr %7, i64 16
  store ptr %max_literals, ptr %d_value.i15, align 8
  %d_statTotLiterals = getelementptr inbounds i8, ptr %this, i64 64
  %tot_literals = getelementptr inbounds i8, ptr %minisat, i64 336
  %8 = load ptr, ptr %d_statTotLiterals, align 8
  %d_value.i16 = getelementptr inbounds i8, ptr %8, i64 16
  store ptr %tot_literals, ptr %d_value.i16, align 8
  ret void
}